; Function Attrs: nounwind uwtable
define void @dt_database_release_transaction(ptr noundef readonly %0) local_unnamed_addr #0 {
  %2 = alloca [64 x i8], align 16
  %3 = atomicrmw sub ptr @_trxid, i32 1 seq_cst, align 4
  %4 = icmp slt i32 %3, 1
  br i1 %4, label %.thread, label %5

.thread:                                          ; preds = %1
  tail call void (ptr, ...) @dt_print_ext(ptr noundef nonnull @.str.141) #18
  br label %26

5:                                                ; preds = %1
  %6 = icmp eq i32 %3, 1
  br i1 %6, label %7, label %26

7:                                                ; preds = %5
  %8 = load i32, ptr getelementptr inbounds nuw (i8, ptr @darktable, i64 8), align 8, !tbaa !25
  %9 = and i32 %8, 256
  %.not7 = icmp eq i32 %9, 0
  br i1 %.not7, label %11, label %10

10:                                               ; preds = %7
  tail call void (ptr, ...) @dt_print_ext(ptr noundef nonnull @.str.89, ptr noundef nonnull @.str.90, i32 noundef 5782, ptr noundef nonnull @__FUNCTION__.dt_database_release_transaction, ptr noundef nonnull @.str.142) #18
  br label %11

11:                                               ; preds = %10, %7
  %.not.i = icmp eq ptr %0, null
  br i1 %.not.i, label %dt_database_get.exit, label %12

12:                                               ; preds = %11
  %13 = getelementptr inbounds nuw i8, ptr %0, i64 40
  %14 = load ptr, ptr %13, align 8, !tbaa !6
  br label %dt_database_get.exit

dt_database_get.exit:                             ; preds = %11, %12
  %15 = phi ptr [ %14, %12 ], [ null, %11 ]
  %16 = tail call i32 @sqlite3_exec(ptr noundef %15, ptr noundef nonnull @.str.142, ptr noundef null, ptr noundef null, ptr noundef null) #18
  %.not8 = icmp eq i32 %16, 0
  br i1 %.not8, label %48, label %17

17:                                               ; preds = %dt_database_get.exit
  %18 = load ptr, ptr @stderr, align 8, !tbaa !71
  %19 = load ptr, ptr getelementptr inbounds nuw (i8, ptr @darktable, i64 136), align 8, !tbaa !73
  %.not.i9 = icmp eq ptr %19, null
  br i1 %.not.i9, label %dt_database_get.exit10, label %20

20:                                               ; preds = %17
  %21 = getelementptr inbounds nuw i8, ptr %19, i64 40
  %22 = load ptr, ptr %21, align 8, !tbaa !6
  br label %dt_database_get.exit10

dt_database_get.exit10:                           ; preds = %17, %20
  %23 = phi ptr [ %22, %20 ], [ null, %17 ]
  %24 = tail call ptr @sqlite3_errmsg(ptr noundef %23) #18
  %25 = tail call i32 (ptr, ptr, ...) @fprintf(ptr noundef %18, ptr noundef nonnull @.str.91, ptr noundef nonnull @.str.90, i32 noundef 5782, ptr noundef nonnull @__FUNCTION__.dt_database_release_transaction, ptr noundef nonnull @.str.142, ptr noundef %24) #23
  br label %48

26:                                               ; preds = %.thread, %5
  call void @llvm.lifetime.start.p0(i64 64, ptr nonnull %2) #18
  call void @llvm.memset.p0.i64(ptr noundef nonnull align 16 dereferenceable(64) %2, i8 0, i64 64, i1 false)
  %27 = add nsw i32 %3, -1
  %28 = call i32 (ptr, i64, ptr, ...) @g_snprintf(ptr noundef nonnull %2, i64 noundef 64, ptr noundef nonnull @.str.143, i32 noundef %27) #18
  %29 = load i32, ptr getelementptr inbounds nuw (i8, ptr @darktable, i64 8), align 8, !tbaa !25
  %30 = and i32 %29, 256
  %.not = icmp eq i32 %30, 0
  br i1 %.not, label %32, label %31

31:                                               ; preds = %26
  call void (ptr, ...) @dt_print_ext(ptr noundef nonnull @.str.89, ptr noundef nonnull @.str.90, i32 noundef 5789, ptr noundef nonnull @__FUNCTION__.dt_database_release_transaction, ptr noundef nonnull %2) #18
  br label %32

32:                                               ; preds = %31, %26
  %.not.i11 = icmp eq ptr %0, null
  br i1 %.not.i11, label %dt_database_get.exit12, label %33

33:                                               ; preds = %32
  %34 = getelementptr inbounds nuw i8, ptr %0, i64 40
  %35 = load ptr, ptr %34, align 8, !tbaa !6
  br label %dt_database_get.exit12

dt_database_get.exit12:                           ; preds = %32, %33
  %36 = phi ptr [ %35, %33 ], [ null, %32 ]
  %37 = call i32 @sqlite3_exec(ptr noundef %36, ptr noundef nonnull %2, ptr noundef null, ptr noundef null, ptr noundef null) #18
  %.not6 = icmp eq i32 %37, 0
  br i1 %.not6, label %47, label %38

38:                                               ; preds = %dt_database_get.exit12
  %39 = load ptr, ptr @stderr, align 8, !tbaa !71
  %40 = load ptr, ptr getelementptr inbounds nuw (i8, ptr @darktable, i64 136), align 8, !tbaa !73
  %.not.i13 = icmp eq ptr %40, null
  br i1 %.not.i13, label %dt_database_get.exit14, label %41

41:                                               ; preds = %38
  %42 = getelementptr inbounds nuw i8, ptr %40, i64 40
  %43 = load ptr, ptr %42, align 8, !tbaa !6
  br label %dt_database_get.exit14

dt_database_get.exit14:                           ; preds = %38, %41
  %44 = phi ptr [ %43, %41 ], [ null, %38 ]
  %45 = call ptr @sqlite3_errmsg(ptr noundef %44) #18
  %46 = call i32 (ptr, ptr, ...) @fprintf(ptr noundef %39, ptr noundef nonnull @.str.91, ptr noundef nonnull @.str.90, i32 noundef 5789, ptr noundef nonnull @__FUNCTION__.dt_database_release_transaction, ptr noundef nonnull %2, ptr noundef %45) #23
  br label %47

47:                                               ; preds = %dt_database_get.exit14, %dt_database_get.exit12
  call void @llvm.lifetime.end.p0(i64 64, ptr nonnull %2) #18
  br label %48

48:                                               ; preds = %dt_database_get.exit, %dt_database_get.exit10, %47
  ret void
}